target datalayout = "e-m:e-p270:32:32-p271:32:32-p272:64:64-i64:64-i128:128-f80:128-n8:16:32:64-S128"
target triple = "x86_64-pc-linux-gnu"

%"struct.std::_Rb_tree_node_base" = type { i32, ptr, ptr, ptr }

; Function Attrs: mustprogress nounwind uwtable
define internal noundef ptr @_ZNSt8_Rb_treeIN3nix11DerivedPathESt4pairIKS1_St6vectorIZNS0_11Installable6build2ENS0_3refINS0_5StoreEEES8_NS0_7RealiseERKS4_INS6_IS5_EESaISA_EENS0_9BuildModeEE3AuxSaISG_EEESt10_Select1stISJ_ESt4lessIS1_ESaISJ_EE7_S_leftEPSt18_Rb_tree_node_base(ptr noundef %0) #2 align 2 {
  %2 = alloca ptr, align 8
  store ptr %0, ptr %2, align 8
  %3 = load ptr, ptr %2, align 8
  %4 = getelementptr inbounds %"struct.std::_Rb_tree_node_base", ptr %3, i32 0, i32 2
  %5 = load ptr, ptr %4, align 8
  ret ptr %5
}

; Function Attrs: mustprogress nounwind uwtable
define internal noundef ptr @_ZNSt8_Rb_treeIN3nix11DerivedPathESt4pairIKS1_St6vectorIZNS0_11Installable6build2ENS0_3refINS0_5StoreEEES8_NS0_7RealiseERKS4_INS6_IS5_EESaISA_EENS0_9BuildModeEE3AuxSaISG_EEESt10_Select1stISJ_ESt4lessIS1_ESaISJ_EE8_S_rightEPSt18_Rb_tree_node_base(ptr noundef %0) #2 align 2 {
  %2 = alloca ptr, align 8
  store ptr %0, ptr %2, align 8
  %3 = load ptr, ptr %2, align 8
  %4 = getelementptr inbounds %"struct.std::_Rb_tree_node_base", ptr %3, i32 0, i32 3
  %5 = load ptr, ptr %4, align 8
  ret ptr %5
}

; Function Attrs: mustprogress uwtable
define internal void @_ZNSt8_Rb_treeIN3nix11DerivedPathESt4pairIKS1_St6vectorIZNS0_11Installable6build2ENS0_3refINS0_5StoreEEES8_NS0_7RealiseERKS4_INS6_IS5_EESaISA_EENS0_9BuildModeEE3AuxSaISG_EEESt10_Select1stISJ_ESt4lessIS1_ESaISJ_EE8_M_eraseEPSt13_Rb_tree_nodeISJ_E(ptr noundef nonnull align 8 dereferenceable(48) %0, ptr noundef %1) #5 align 2 {
  %3 = alloca ptr, align 8
  %4 = alloca ptr, align 8
  %5 = alloca ptr, align 8
  store ptr %0, ptr %3, align 8
  store ptr %1, ptr %4, align 8
  %6 = load ptr, ptr %3, align 8
  br label %7

7:                                                ; preds = %10, %2
  %8 = load ptr, ptr %4, align 8
  %9 = icmp ne ptr %8, null
  br i1 %9, label %10, label %17

10:                                               ; preds = %7
  %11 = load ptr, ptr %4, align 8
  %12 = call noundef ptr @_ZNSt8_Rb_treeIN3nix11DerivedPathESt4pairIKS1_St6vectorIZNS0_11Installable6build2ENS0_3refINS0_5StoreEEES8_NS0_7RealiseERKS4_INS6_IS5_EESaISA_EENS0_9BuildModeEE3AuxSaISG_EEESt10_Select1stISJ_ESt4lessIS1_ESaISJ_EE8_S_rightEPSt18_Rb_tree_node_base(ptr noundef %11) #1
  call void @_ZNSt8_Rb_treeIN3nix11DerivedPathESt4pairIKS1_St6vectorIZNS0_11Installable6build2ENS0_3refINS0_5StoreEEES8_NS0_7RealiseERKS4_INS6_IS5_EESaISA_EENS0_9BuildModeEE3AuxSaISG_EEESt10_Select1stISJ_ESt4lessIS1_ESaISJ_EE8_M_eraseEPSt13_Rb_tree_nodeISJ_E(ptr noundef nonnull align 8 dereferenceable(48) %6, ptr noundef %12)
  %13 = load ptr, ptr %4, align 8
  %14 = call noundef ptr @_ZNSt8_Rb_treeIN3nix11DerivedPathESt4pairIKS1_St6vectorIZNS0_11Installable6build2ENS0_3refINS0_5StoreEEES8_NS0_7RealiseERKS4_INS6_IS5_EESaISA_EENS0_9BuildModeEE3AuxSaISG_EEESt10_Select1stISJ_ESt4lessIS1_ESaISJ_EE7_S_leftEPSt18_Rb_tree_node_base(ptr noundef %13) #1
  store ptr %14, ptr %5, align 8
  %15 = load ptr, ptr %4, align 8
  call void @_ZNSt8_Rb_treeIN3nix11DerivedPathESt4pairIKS1_St6vectorIZNS0_11Installable6build2ENS0_3refINS0_5StoreEEES8_NS0_7RealiseERKS4_INS6_IS5_EESaISA_EENS0_9BuildModeEE3AuxSaISG_EEESt10_Select1stISJ_ESt4lessIS1_ESaISJ_EE12_M_drop_nodeEPSt13_Rb_tree_nodeISJ_E(ptr noundef nonnull align 8 dereferenceable(48) %6, ptr noundef %15) #1
  %16 = load ptr, ptr %5, align 8
  store ptr %16, ptr %4, align 8
  br label %7, !llvm.loop !73

17:                                               ; preds = %7
  ret void
}