; Function Attrs: mustprogress nounwind uwtable
define internal fastcc void @_ZNSt8_Rb_treeIN3nix11DerivedPathESt4pairIKS1_St6vectorIZNS0_11Installable6build2ENS0_3refINS0_5StoreEEES8_NS0_7RealiseERKS4_INS6_IS5_EESaISA_EENS0_9BuildModeEE3AuxSaISG_EEESt10_Select1stISJ_ESt4lessIS1_ESaISJ_EE8_M_eraseEPSt13_Rb_tree_nodeISJ_E(ptr noundef %0) unnamed_addr #5 align 2 {
  %.not7 = icmp eq ptr %0, null
  br i1 %.not7, label %._crit_edge, label %.lr.ph

.lr.ph:                                           ; preds = %1, %.lr.ph
  %.08 = phi ptr [ %.0.val, %.lr.ph ], [ %0, %1 ]
  %2 = getelementptr i8, ptr %.08, i64 24
  %.0.val6 = load ptr, ptr %2, align 8
  tail call fastcc void @_ZNSt8_Rb_treeIN3nix11DerivedPathESt4pairIKS1_St6vectorIZNS0_11Installable6build2ENS0_3refINS0_5StoreEEES8_NS0_7RealiseERKS4_INS6_IS5_EESaISA_EENS0_9BuildModeEE3AuxSaISG_EEESt10_Select1stISJ_ESt4lessIS1_ESaISJ_EE8_M_eraseEPSt13_Rb_tree_nodeISJ_E(ptr noundef %.0.val6)
  %3 = getelementptr i8, ptr %.08, i64 16
  %.0.val = load ptr, ptr %3, align 8
  tail call fastcc void @_ZNSt8_Rb_treeIN3nix11DerivedPathESt4pairIKS1_St6vectorIZNS0_11Installable6build2ENS0_3refINS0_5StoreEEES8_NS0_7RealiseERKS4_INS6_IS5_EESaISA_EENS0_9BuildModeEE3AuxSaISG_EEESt10_Select1stISJ_ESt4lessIS1_ESaISJ_EE12_M_drop_nodeEPSt13_Rb_tree_nodeISJ_E(ptr noundef nonnull %.08) #28
  %.not = icmp eq ptr %.0.val, null
  br i1 %.not, label %._crit_edge, label %.lr.ph, !llvm.loop !230

._crit_edge:                                      ; preds = %.lr.ph, %1
  ret void
}